; ModuleID = '20/215.c'
source_filename = "20/215.c"
target datalayout = "e-m:e-p270:32:32-p271:32:32-p272:64:64-i64:64-f80:128-n8:16:32:64-S128"
target triple = "x86_64-pc-linux-gnu"

@.str = private unnamed_addr constant [4 x i8] c"%s\0A\00", align 1

; Function Attrs: noinline nounwind uwtable
define dso_local void @main() #0 {
  %1 = alloca [15 x i8], align 1
  %2 = alloca [3 x i8], align 1
  %3 = alloca [500 x [15 x i8]], align 16
  %4 = alloca i8, align 1
  %5 = alloca i32, align 4
  %6 = alloca i32, align 4
  %7 = alloca i32, align 4
  %8 = alloca i32, align 4
  store i32 0, i32* %8, align 4
  br label %9

9:                                                ; preds = %136, %0
  %10 = getelementptr inbounds [15 x i8], [15 x i8]* %1, i64 0, i64 0
  %11 = call i32 (i8*, ...) bitcast (i32 (...)* @gets to i32 (i8*, ...)*)(i8* %10)
  %12 = sext i32 %11 to i64
  %13 = inttoptr i64 %12 to i8*
  %14 = icmp ne i8* %13, null
  br i1 %14, label %15, label %152

15:                                               ; preds = %9
  %16 = getelementptr inbounds [15 x i8], [15 x i8]* %1, i64 0, i64 0
  %17 = call i64 @strlen(i8* %16) #4
  %18 = trunc i64 %17 to i32
  store i32 %18, i32* %7, align 4
  %19 = load i32, i32* %7, align 4
  %20 = icmp eq i32 %19, 0
  br i1 %20, label %21, label %22

21:                                               ; preds = %15
  br label %152

22:                                               ; preds = %15
  store i32 0, i32* %5, align 4
  br label %23

23:                                               ; preds = %36, %22
  %24 = load i32, i32* %5, align 4
  %25 = load i32, i32* %7, align 4
  %26 = icmp slt i32 %24, %25
  br i1 %26, label %27, label %39

27:                                               ; preds = %23
  %28 = load i32, i32* %5, align 4
  %29 = sext i32 %28 to i64
  %30 = getelementptr inbounds [15 x i8], [15 x i8]* %1, i64 0, i64 %29
  %31 = load i8, i8* %30, align 1
  %32 = sext i8 %31 to i32
  %33 = icmp eq i32 %32, 32
  br i1 %33, label %34, label %35

34:                                               ; preds = %27
  br label %39

35:                                               ; preds = %27
  br label %36

36:                                               ; preds = %35
  %37 = load i32, i32* %5, align 4
  %38 = add nsw i32 %37, 1
  store i32 %38, i32* %5, align 4
  br label %23

39:                                               ; preds = %34, %23
  %40 = load i32, i32* %5, align 4
  %41 = add nsw i32 %40, 1
  store i32 %41, i32* %6, align 4
  br label %42

42:                                               ; preds = %58, %39
  %43 = load i32, i32* %6, align 4
  %44 = load i32, i32* %5, align 4
  %45 = add nsw i32 %44, 4
  %46 = icmp sle i32 %43, %45
  br i1 %46, label %47, label %61

47:                                               ; preds = %42
  %48 = load i32, i32* %6, align 4
  %49 = sext i32 %48 to i64
  %50 = getelementptr inbounds [15 x i8], [15 x i8]* %1, i64 0, i64 %49
  %51 = load i8, i8* %50, align 1
  %52 = load i32, i32* %6, align 4
  %53 = load i32, i32* %5, align 4
  %54 = sub nsw i32 %52, %53
  %55 = sub nsw i32 %54, 1
  %56 = sext i32 %55 to i64
  %57 = getelementptr inbounds [3 x i8], [3 x i8]* %2, i64 0, i64 %56
  store i8 %51, i8* %57, align 1
  br label %58

58:                                               ; preds = %47
  %59 = load i32, i32* %6, align 4
  %60 = add nsw i32 %59, 1
  store i32 %60, i32* %6, align 4
  br label %42

61:                                               ; preds = %42
  %62 = load i32, i32* %5, align 4
  %63 = sext i32 %62 to i64
  %64 = getelementptr inbounds [15 x i8], [15 x i8]* %1, i64 0, i64 %63
  store i8 0, i8* %64, align 1
  %65 = load i32, i32* %7, align 4
  %66 = sub nsw i32 %65, 3
  store i32 %66, i32* %7, align 4
  %67 = getelementptr inbounds [15 x i8], [15 x i8]* %1, i64 0, i64 0
  %68 = load i8, i8* %67, align 1
  store i8 %68, i8* %4, align 1
  store i32 0, i32* %6, align 4
  store i32 0, i32* %5, align 4
  br label %69

69:                                               ; preds = %92, %61
  %70 = load i32, i32* %5, align 4
  %71 = sext i32 %70 to i64
  %72 = getelementptr inbounds [15 x i8], [15 x i8]* %1, i64 0, i64 %71
  %73 = load i8, i8* %72, align 1
  %74 = sext i8 %73 to i32
  %75 = icmp ne i32 %74, 0
  br i1 %75, label %76, label %95

76:                                               ; preds = %69
  %77 = load i32, i32* %5, align 4
  %78 = sext i32 %77 to i64
  %79 = getelementptr inbounds [15 x i8], [15 x i8]* %1, i64 0, i64 %78
  %80 = load i8, i8* %79, align 1
  %81 = sext i8 %80 to i32
  %82 = load i8, i8* %4, align 1
  %83 = sext i8 %82 to i32
  %84 = icmp sgt i32 %81, %83
  br i1 %84, label %85, label %91

85:                                               ; preds = %76
  %86 = load i32, i32* %5, align 4
  %87 = sext i32 %86 to i64
  %88 = getelementptr inbounds [15 x i8], [15 x i8]* %1, i64 0, i64 %87
  %89 = load i8, i8* %88, align 1
  store i8 %89, i8* %4, align 1
  %90 = load i32, i32* %5, align 4
  store i32 %90, i32* %6, align 4
  br label %91

91:                                               ; preds = %85, %76
  br label %92

92:                                               ; preds = %91
  %93 = load i32, i32* %5, align 4
  %94 = add nsw i32 %93, 1
  store i32 %94, i32* %5, align 4
  br label %69

95:                                               ; preds = %69
  %96 = load i32, i32* %7, align 4
  %97 = sub nsw i32 %96, 1
  store i32 %97, i32* %5, align 4
  br label %98

98:                                               ; preds = %111, %95
  %99 = load i32, i32* %5, align 4
  %100 = load i32, i32* %6, align 4
  %101 = icmp sgt i32 %99, %100
  br i1 %101, label %102, label %114

102:                                              ; preds = %98
  %103 = load i32, i32* %5, align 4
  %104 = sext i32 %103 to i64
  %105 = getelementptr inbounds [15 x i8], [15 x i8]* %1, i64 0, i64 %104
  %106 = load i8, i8* %105, align 1
  %107 = load i32, i32* %5, align 4
  %108 = add nsw i32 %107, 3
  %109 = sext i32 %108 to i64
  %110 = getelementptr inbounds [15 x i8], [15 x i8]* %1, i64 0, i64 %109
  store i8 %106, i8* %110, align 1
  br label %111

111:                                              ; preds = %102
  %112 = load i32, i32* %5, align 4
  %113 = add nsw i32 %112, -1
  store i32 %113, i32* %5, align 4
  br label %98

114:                                              ; preds = %98
  %115 = load i32, i32* %6, align 4
  %116 = add nsw i32 %115, 1
  store i32 %116, i32* %5, align 4
  br label %117

117:                                              ; preds = %133, %114
  %118 = load i32, i32* %5, align 4
  %119 = load i32, i32* %6, align 4
  %120 = add nsw i32 %119, 4
  %121 = icmp slt i32 %118, %120
  br i1 %121, label %122, label %136

122:                                              ; preds = %117
  %123 = load i32, i32* %5, align 4
  %124 = load i32, i32* %6, align 4
  %125 = sub nsw i32 %123, %124
  %126 = sub nsw i32 %125, 1
  %127 = sext i32 %126 to i64
  %128 = getelementptr inbounds [3 x i8], [3 x i8]* %2, i64 0, i64 %127
  %129 = load i8, i8* %128, align 1
  %130 = load i32, i32* %5, align 4
  %131 = sext i32 %130 to i64
  %132 = getelementptr inbounds [15 x i8], [15 x i8]* %1, i64 0, i64 %131
  store i8 %129, i8* %132, align 1
  br label %133

133:                                              ; preds = %122
  %134 = load i32, i32* %5, align 4
  %135 = add nsw i32 %134, 1
  store i32 %135, i32* %5, align 4
  br label %117

136:                                              ; preds = %117
  %137 = load i32, i32* %8, align 4
  %138 = sext i32 %137 to i64
  %139 = getelementptr inbounds [500 x [15 x i8]], [500 x [15 x i8]]* %3, i64 0, i64 %138
  %140 = getelementptr inbounds [15 x i8], [15 x i8]* %139, i64 0, i64 0
  %141 = getelementptr inbounds [15 x i8], [15 x i8]* %1, i64 0, i64 0
  %142 = call i8* @strcpy(i8* %140, i8* %141) #5
  %143 = load i32, i32* %8, align 4
  %144 = sext i32 %143 to i64
  %145 = getelementptr inbounds [500 x [15 x i8]], [500 x [15 x i8]]* %3, i64 0, i64 %144
  %146 = load i32, i32* %7, align 4
  %147 = add nsw i32 %146, 3
  %148 = sext i32 %147 to i64
  %149 = getelementptr inbounds [15 x i8], [15 x i8]* %145, i64 0, i64 %148
  store i8 0, i8* %149, align 1
  %150 = load i32, i32* %8, align 4
  %151 = add nsw i32 %150, 1
  store i32 %151, i32* %8, align 4
  br label %9

152:                                              ; preds = %21, %9
  %153 = load i32, i32* %8, align 4
  store i32 %153, i32* %5, align 4
  br label %154

154:                                              ; preds = %162, %152
  %155 = load i32, i32* %5, align 4
  %156 = icmp slt i32 %155, 500
  br i1 %156, label %157, label %165

157:                                              ; preds = %154
  %158 = load i32, i32* %5, align 4
  %159 = sext i32 %158 to i64
  %160 = getelementptr inbounds [500 x [15 x i8]], [500 x [15 x i8]]* %3, i64 0, i64 %159
  %161 = getelementptr inbounds [15 x i8], [15 x i8]* %160, i64 0, i64 0
  store i8 0, i8* %161, align 1
  br label %162

162:                                              ; preds = %157
  %163 = load i32, i32* %5, align 4
  %164 = add nsw i32 %163, 1
  store i32 %164, i32* %5, align 4
  br label %154

165:                                              ; preds = %154
  store i32 0, i32* %5, align 4
  br label %166

166:                                              ; preds = %176, %165
  %167 = load i32, i32* %5, align 4
  %168 = load i32, i32* %8, align 4
  %169 = icmp slt i32 %167, %168
  br i1 %169, label %170, label %179

170:                                              ; preds = %166
  %171 = load i32, i32* %5, align 4
  %172 = sext i32 %171 to i64
  %173 = getelementptr inbounds [500 x [15 x i8]], [500 x [15 x i8]]* %3, i64 0, i64 %172
  %174 = getelementptr inbounds [15 x i8], [15 x i8]* %173, i64 0, i64 0
  %175 = call i32 (i8*, ...) @printf(i8* getelementptr inbounds ([4 x i8], [4 x i8]* @.str, i64 0, i64 0), i8* %174)
  br label %176

176:                                              ; preds = %170
  %177 = load i32, i32* %5, align 4
  %178 = add nsw i32 %177, 1
  store i32 %178, i32* %5, align 4
  br label %166

179:                                              ; preds = %166
  ret void
}

declare dso_local i32 @gets(...) #1

; Function Attrs: nounwind readonly
declare dso_local i64 @strlen(i8*) #2

; Function Attrs: nounwind
declare dso_local i8* @strcpy(i8*, i8*) #3

declare dso_local i32 @printf(i8*, ...) #1


!llvm.module.flags = !{!0}
!llvm.ident = !{!1}

!0 = !{i32 1, !"wchar_size", i32 4}
!1 = !{!"clang version 10.0.0-4ubuntu1 "}
